; ModuleID = '26/867.c'
source_filename = "26/867.c"
target datalayout = "e-m:e-p270:32:32-p271:32:32-p272:64:64-i64:64-f80:128-n8:16:32:64-S128"
target triple = "x86_64-pc-linux-gnu"

@.str = private unnamed_addr constant [3 x i8] c"%c\00", align 1

; Function Attrs: noinline nounwind uwtable
define dso_local i32 @main() #0 {
  %1 = alloca i32, align 4
  %2 = alloca i32, align 4
  %3 = alloca i32, align 4
  %4 = alloca [101 x i8], align 16
  store i32 0, i32* %1, align 4
  %5 = getelementptr inbounds [101 x i8], [101 x i8]* %4, i64 0, i64 0
  %6 = call i32 (i8*, ...) bitcast (i32 (...)* @gets to i32 (i8*, ...)*)(i8* %5)
  store i32 0, i32* %2, align 4
  br label %7

7:                                                ; preds = %20, %0
  %8 = load i32, i32* %2, align 4
  %9 = icmp slt i32 %8, 101
  br i1 %9, label %10, label %23

10:                                               ; preds = %7
  %11 = load i32, i32* %2, align 4
  %12 = sext i32 %11 to i64
  %13 = getelementptr inbounds [101 x i8], [101 x i8]* %4, i64 0, i64 %12
  %14 = load i8, i8* %13, align 1
  %15 = sext i8 %14 to i32
  %16 = icmp eq i32 %15, 0
  br i1 %16, label %17, label %19

17:                                               ; preds = %10
  %18 = load i32, i32* %2, align 4
  store i32 %18, i32* %3, align 4
  br label %23

19:                                               ; preds = %10
  br label %20

20:                                               ; preds = %19
  %21 = load i32, i32* %2, align 4
  %22 = add nsw i32 %21, 1
  store i32 %22, i32* %2, align 4
  br label %7

23:                                               ; preds = %17, %7
  store i32 0, i32* %2, align 4
  br label %24

24:                                               ; preds = %51, %23
  %25 = load i32, i32* %2, align 4
  %26 = load i32, i32* %3, align 4
  %27 = icmp slt i32 %25, %26
  br i1 %27, label %28, label %54

28:                                               ; preds = %24
  %29 = load i32, i32* %2, align 4
  %30 = sext i32 %29 to i64
  %31 = getelementptr inbounds [101 x i8], [101 x i8]* %4, i64 0, i64 %30
  %32 = load i8, i8* %31, align 1
  %33 = sext i8 %32 to i32
  %34 = icmp eq i32 %33, 32
  br i1 %34, label %35, label %43

35:                                               ; preds = %28
  %36 = load i32, i32* %2, align 4
  %37 = add nsw i32 %36, 1
  %38 = sext i32 %37 to i64
  %39 = getelementptr inbounds [101 x i8], [101 x i8]* %4, i64 0, i64 %38
  %40 = load i8, i8* %39, align 1
  %41 = sext i8 %40 to i32
  %42 = icmp eq i32 %41, 32
  br i1 %42, label %50, label %43

43:                                               ; preds = %35, %28
  %44 = load i32, i32* %2, align 4
  %45 = sext i32 %44 to i64
  %46 = getelementptr inbounds [101 x i8], [101 x i8]* %4, i64 0, i64 %45
  %47 = load i8, i8* %46, align 1
  %48 = sext i8 %47 to i32
  %49 = call i32 (i8*, ...) @printf(i8* getelementptr inbounds ([3 x i8], [3 x i8]* @.str, i64 0, i64 0), i32 %48)
  br label %50

50:                                               ; preds = %43, %35
  br label %51

51:                                               ; preds = %50
  %52 = load i32, i32* %2, align 4
  %53 = add nsw i32 %52, 1
  store i32 %53, i32* %2, align 4
  br label %24

54:                                               ; preds = %24
  ret i32 0
}

declare dso_local i32 @gets(...) #1

declare dso_local i32 @printf(i8*, ...) #1


!llvm.module.flags = !{!0}
!llvm.ident = !{!1}

!0 = !{i32 1, !"wchar_size", i32 4}
!1 = !{!"clang version 10.0.0-4ubuntu1 "}
